target datalayout = "e-m:e-p270:32:32-p271:32:32-p272:64:64-i64:64-i128:128-f80:128-n8:16:32:64-S128"
target triple = "x86_64-pc-linux-gnu"

; Function Attrs: nounwind uwtable
define internal i32 @xioctl(i32 noundef %0, i32 noundef %1, ptr noundef %2) #0 {
  %4 = alloca i32, align 4
  %5 = alloca i32, align 4
  %6 = alloca ptr, align 8
  %7 = alloca i32, align 4
  store i32 %0, ptr %4, align 4
  store i32 %1, ptr %5, align 4
  store ptr %2, ptr %6, align 8
  call void @llvm.lifetime.start.p0(i64 4, ptr %7) #8
  br label %8

8:                                                ; preds = %21, %3
  %9 = load i32, ptr %4, align 4
  %10 = load i32, ptr %5, align 4
  %11 = sext i32 %10 to i64
  %12 = load ptr, ptr %6, align 8
  %13 = call i32 (i32, i64, ...) @ioctl(i32 noundef %9, i64 noundef %11, ptr noundef %12) #8
  store i32 %13, ptr %7, align 4
  br label %14

14:                                               ; preds = %8
  %15 = load i32, ptr %7, align 4
  %16 = icmp eq i32 %15, -1
  br i1 %16, label %17, label %21

17:                                               ; preds = %14
  %18 = call ptr @__errno_location() #9
  %19 = load i32, ptr %18, align 4
  %20 = icmp eq i32 %19, 4
  br label %21

21:                                               ; preds = %17, %14
  %22 = phi i1 [ false, %14 ], [ %20, %17 ]
  br i1 %22, label %8, label %23, !llvm.loop !19

23:                                               ; preds = %21
  %24 = load i32, ptr %7, align 4
  call void @llvm.lifetime.end.p0(i64 4, ptr %7) #8
  ret i32 %24
}