; Function Attrs: nounwind uwtable
define internal fastcc i32 @xioctl(i32 noundef %0, i32 noundef range(i32 -2140645888, 1075074621) %1, ptr noundef nonnull %2) unnamed_addr #1 {
  %4 = sext i32 %1 to i64
  br label %5

5:                                                ; preds = %8, %3
  %6 = tail call i32 (i32, i64, ...) @ioctl(i32 noundef %0, i64 noundef %4, ptr noundef nonnull %2) #11
  %7 = icmp eq i32 %6, -1
  br i1 %7, label %8, label %.critedge

8:                                                ; preds = %5
  %9 = tail call ptr @__errno_location() #12
  %10 = load i32, ptr %9, align 4
  %11 = icmp eq i32 %10, 4
  br i1 %11, label %5, label %.critedge, !llvm.loop !5

.critedge:                                        ; preds = %5, %8
  ret i32 %6
}